; Function Attrs: mustprogress nounwind uwtable
define dso_local noundef ptr @_ZN13SubprocessSet12NextFinishedEv(ptr noundef nonnull align 8 captures(none) dereferenceable(688) %0) local_unnamed_addr #1 align 2 personality ptr @__gxx_personality_v0 {
  %2 = getelementptr inbounds nuw i8, ptr %0, i64 72
  %3 = getelementptr inbounds nuw i8, ptr %0, i64 40
  %4 = load ptr, ptr %2, align 8, !tbaa !55
  %5 = load ptr, ptr %3, align 8, !tbaa !55
  %6 = icmp eq ptr %4, %5
  br i1 %6, label %22, label %7

7:                                                ; preds = %1
  %8 = load ptr, ptr %5, align 8, !tbaa !43
  %9 = getelementptr inbounds nuw i8, ptr %0, i64 56
  %10 = load ptr, ptr %9, align 8, !tbaa !56
  %11 = getelementptr inbounds i8, ptr %10, i64 -8
  %.not.i.i = icmp eq ptr %5, %11
  br i1 %.not.i.i, label %14, label %12

12:                                               ; preds = %7
  %13 = getelementptr inbounds nuw i8, ptr %5, i64 8
  br label %_ZNSt5queueIP10SubprocessSt5dequeIS1_SaIS1_EEE3popEv.exit

14:                                               ; preds = %7
  %15 = getelementptr inbounds nuw i8, ptr %0, i64 48
  %16 = load ptr, ptr %15, align 8, !tbaa !57
  tail call void @_ZdlPvm(ptr noundef %16, i64 noundef 512) #25
  %17 = getelementptr inbounds nuw i8, ptr %0, i64 64
  %18 = load ptr, ptr %17, align 8, !tbaa !37
  %19 = getelementptr inbounds nuw i8, ptr %18, i64 8
  store ptr %19, ptr %17, align 8, !tbaa !58
  %20 = load ptr, ptr %19, align 8, !tbaa !39
  store ptr %20, ptr %15, align 8, !tbaa !59
  %21 = getelementptr inbounds nuw i8, ptr %20, i64 512
  store ptr %21, ptr %9, align 8, !tbaa !60
  br label %_ZNSt5queueIP10SubprocessSt5dequeIS1_SaIS1_EEE3popEv.exit

_ZNSt5queueIP10SubprocessSt5dequeIS1_SaIS1_EEE3popEv.exit: ; preds = %12, %14
  %storemerge.i.i = phi ptr [ %13, %12 ], [ %20, %14 ]
  store ptr %storemerge.i.i, ptr %3, align 8, !tbaa !61
  br label %22

22:                                               ; preds = %1, %_ZNSt5queueIP10SubprocessSt5dequeIS1_SaIS1_EEE3popEv.exit
  %.0 = phi ptr [ %8, %_ZNSt5queueIP10SubprocessSt5dequeIS1_SaIS1_EEE3popEv.exit ], [ null, %1 ]
  ret ptr %.0
}